target datalayout = "e-m:e-p270:32:32-p271:32:32-p272:64:64-i64:64-i128:128-f80:128-n8:16:32:64-S128"
target triple = "x86_64-pc-linux-gnu"

%struct.CRYPTO_REF_COUNT = type { i32 }
%struct.cert_st = type { ptr, ptr, ptr, i32, i32, ptr, i64, ptr, i64, ptr, i64, ptr, i64, ptr, ptr, ptr, ptr, %struct.custom_ext_methods, ptr, i32, ptr, ptr, %struct.CRYPTO_REF_COUNT }
%struct.custom_ext_methods = type { ptr, i64 }

@.str.2 = private unnamed_addr constant [24 x i8] c"../openssl/ssl/s3_lib.c\00", align 1

; Function Attrs: nounwind uwtable
define internal i32 @ssl3_set_req_cert_type(ptr noundef %0, ptr noundef %1, i64 noundef %2) #0 {
  %4 = alloca i32, align 4
  %5 = alloca ptr, align 8
  %6 = alloca ptr, align 8
  %7 = alloca i64, align 8
  store ptr %0, ptr %5, align 8, !tbaa !169
  store ptr %1, ptr %6, align 8, !tbaa !15
  store i64 %2, ptr %7, align 8, !tbaa !16
  %8 = load ptr, ptr %5, align 8, !tbaa !169
  %9 = getelementptr inbounds nuw %struct.cert_st, ptr %8, i32 0, i32 7
  %10 = load ptr, ptr %9, align 8, !tbaa !170
  call void @CRYPTO_free(ptr noundef %10, ptr noundef @.str.2, i32 noundef 4564)
  %11 = load ptr, ptr %5, align 8, !tbaa !169
  %12 = getelementptr inbounds nuw %struct.cert_st, ptr %11, i32 0, i32 7
  store ptr null, ptr %12, align 8, !tbaa !170
  %13 = load ptr, ptr %5, align 8, !tbaa !169
  %14 = getelementptr inbounds nuw %struct.cert_st, ptr %13, i32 0, i32 8
  store i64 0, ptr %14, align 8, !tbaa !171
  %15 = load ptr, ptr %6, align 8, !tbaa !15
  %16 = icmp eq ptr %15, null
  br i1 %16, label %20, label %17

17:                                               ; preds = %3
  %18 = load i64, ptr %7, align 8, !tbaa !16
  %19 = icmp eq i64 %18, 0
  br i1 %19, label %20, label %21

20:                                               ; preds = %17, %3
  store i32 1, ptr %4, align 4
  br label %40

21:                                               ; preds = %17
  %22 = load i64, ptr %7, align 8, !tbaa !16
  %23 = icmp ugt i64 %22, 255
  br i1 %23, label %24, label %25

24:                                               ; preds = %21
  store i32 0, ptr %4, align 4
  br label %40

25:                                               ; preds = %21
  %26 = load ptr, ptr %6, align 8, !tbaa !15
  %27 = load i64, ptr %7, align 8, !tbaa !16
  %28 = call noalias ptr @CRYPTO_memdup(ptr noundef %26, i64 noundef %27, ptr noundef @.str.2, i32 noundef 4571)
  %29 = load ptr, ptr %5, align 8, !tbaa !169
  %30 = getelementptr inbounds nuw %struct.cert_st, ptr %29, i32 0, i32 7
  store ptr %28, ptr %30, align 8, !tbaa !170
  %31 = load ptr, ptr %5, align 8, !tbaa !169
  %32 = getelementptr inbounds nuw %struct.cert_st, ptr %31, i32 0, i32 7
  %33 = load ptr, ptr %32, align 8, !tbaa !170
  %34 = icmp eq ptr %33, null
  br i1 %34, label %35, label %36

35:                                               ; preds = %25
  store i32 0, ptr %4, align 4
  br label %40

36:                                               ; preds = %25
  %37 = load i64, ptr %7, align 8, !tbaa !16
  %38 = load ptr, ptr %5, align 8, !tbaa !169
  %39 = getelementptr inbounds nuw %struct.cert_st, ptr %38, i32 0, i32 8
  store i64 %37, ptr %39, align 8, !tbaa !171
  store i32 1, ptr %4, align 4
  br label %40

40:                                               ; preds = %36, %35, %24, %20
  %41 = load i32, ptr %4, align 4
  ret i32 %41
}