; Function Attrs: nounwind uwtable
define internal fastcc range(i32 0, 2) i32 @ssl3_set_req_cert_type(ptr noundef captures(none) initializes((56, 64)) %0, ptr noundef %1, i64 noundef %2) unnamed_addr #4 {
  %4 = getelementptr inbounds nuw i8, ptr %0, i64 48
  %5 = load ptr, ptr %4, align 8, !tbaa !154
  tail call void @CRYPTO_free(ptr noundef %5, ptr noundef nonnull @.str.2, i32 noundef 4564) #18
  %6 = getelementptr inbounds nuw i8, ptr %0, i64 56
  %7 = icmp eq ptr %1, null
  %8 = icmp eq i64 %2, 0
  %or.cond = or i1 %7, %8
  tail call void @llvm.memset.p0.i64(ptr noundef nonnull align 8 dereferenceable(16) %4, i8 0, i64 16, i1 false)
  br i1 %or.cond, label %15, label %9

9:                                                ; preds = %3
  %10 = icmp ugt i64 %2, 255
  br i1 %10, label %15, label %11

11:                                               ; preds = %9
  %12 = tail call noalias ptr @CRYPTO_memdup(ptr noundef nonnull %1, i64 noundef %2, ptr noundef nonnull @.str.2, i32 noundef 4571) #18
  store ptr %12, ptr %4, align 8, !tbaa !154
  %13 = icmp eq ptr %12, null
  br i1 %13, label %15, label %14

14:                                               ; preds = %11
  store i64 %2, ptr %6, align 8, !tbaa !155
  br label %15

15:                                               ; preds = %11, %9, %3, %14
  %.0 = phi i32 [ 1, %14 ], [ 1, %3 ], [ 0, %9 ], [ 0, %11 ]
  ret i32 %.0
}